target datalayout = "e-m:e-p270:32:32-p271:32:32-p272:64:64-i64:64-i128:128-f80:128-n8:16:32:64-S128"
target triple = "x86_64-pc-linux-gnu"

%struct.testVector = type { ptr, ptr, i64, i64 }
%union.wc_Hashes = type { %struct.wc_Sha3 }
%struct.wc_Sha3 = type { [25 x i64], [200 x i8], i8, ptr }
%struct.Hmac = type { %union.wc_Hashes, [36 x i32], [36 x i32], [16 x i32], ptr, i8, i8 }

@devId = internal global i32 -2, align 4
@.str.148 = private unnamed_addr constant [9 x i8] c"Hi There\00", align 1
@.str.150 = private unnamed_addr constant [29 x i8] c"what do ya want for nothing?\00", align 1
@.str.152 = private unnamed_addr constant [51 x i8] c"\DD\DD\DD\DD\DD\DD\DD\DD\DD\DD\DD\DD\DD\DD\DD\DD\DD\DD\DD\DD\DD\DD\DD\DD\DD\DD\DD\DD\DD\DD\DD\DD\DD\DD\DD\DD\DD\DD\DD\DD\DD\DD\DD\DD\DD\DD\DD\DD\DD\DD\00", align 1
@.str.154 = private unnamed_addr constant [55 x i8] c"Test Using Larger Than Block-Size Key - Hash Key First\00", align 1
@__const.hmac_sha256_test.keys = private unnamed_addr constant [5 x ptr] [ptr @.str.156, ptr @.str.145, ptr @.str.157, ptr @.str.157, ptr @.str.162], align 16
@.str.167 = private unnamed_addr constant [33 x i8] c"\B04La\D8\DB8S\\\A8\AF\CE\AF\0B\F1+\88\1D\C2\00\C9\83=\A7&\E97l.2\CF\F7\00", align 1
@.str.168 = private unnamed_addr constant [33 x i8] c"[\DC\C1F\BF`uNj\04$&\08\95u\C7Z\00?\08\9D'9\83\9D\ECX\B9d\EC8C\00", align 1
@.str.169 = private unnamed_addr constant [33 x i8] c"w>\A9\1E6\80\0EF\85M\B8\EB\D0\91\81\A7)Y\09\8B>\F8\C1\22\D9cU\14\CE\D5e\FE\00", align 1
@.str.170 = private unnamed_addr constant [33 x i8] c"\86\E5O\D4Hr]~]\CF\E2#S\C8(\AFHx\1E\B4\8C\AE\81\06\A7\E1\D4\98\94\9F>F\00", align 1
@.str.171 = private unnamed_addr constant [33 x i8] c"`\E41Y\1E\E0\B6\7F\0D\8A&\AA\CB\F5\B7\7F\8E\0B\C6!7(\C5\14\05F\04\0F\0E\E3\7FT\00", align 1

; Function Attrs: nounwind uwtable
define dso_local i32 @hmac_sha256_test() #0 {
  %1 = alloca i32, align 4
  %2 = alloca %struct.Hmac, align 16
  %3 = alloca [32 x i8], align 16
  %4 = alloca [5 x ptr], align 16
  %5 = alloca %struct.testVector, align 8
  %6 = alloca %struct.testVector, align 8
  %7 = alloca %struct.testVector, align 8
  %8 = alloca %struct.testVector, align 8
  %9 = alloca %struct.testVector, align 8
  %10 = alloca [5 x %struct.testVector], align 16
  %11 = alloca i32, align 4
  %12 = alloca i32, align 4
  %13 = alloca i32, align 4
  %14 = alloca i32, align 4
  call void @llvm.lifetime.start.p0(i64 784, ptr %2) #10
  call void @llvm.lifetime.start.p0(i64 32, ptr %3) #10
  call void @llvm.lifetime.start.p0(i64 40, ptr %4) #10
  call void @llvm.memcpy.p0.p0.i64(ptr align 16 %4, ptr align 16 @__const.hmac_sha256_test.keys, i64 40, i1 false)
  call void @llvm.lifetime.start.p0(i64 32, ptr %5) #10
  call void @llvm.lifetime.start.p0(i64 32, ptr %6) #10
  call void @llvm.lifetime.start.p0(i64 32, ptr %7) #10
  call void @llvm.lifetime.start.p0(i64 32, ptr %8) #10
  call void @llvm.lifetime.start.p0(i64 32, ptr %9) #10
  call void @llvm.lifetime.start.p0(i64 160, ptr %10) #10
  call void @llvm.lifetime.start.p0(i64 4, ptr %11) #10
  call void @llvm.lifetime.start.p0(i64 4, ptr %12) #10
  store i32 5, ptr %12, align 4, !tbaa !14
  call void @llvm.lifetime.start.p0(i64 4, ptr %13) #10
  br label %15

15:                                               ; preds = %0
  br label %16

16:                                               ; preds = %15
  br label %17

17:                                               ; preds = %16
  %18 = getelementptr inbounds nuw %struct.testVector, ptr %5, i32 0, i32 0
  store ptr @.str.148, ptr %18, align 8, !tbaa !32
  %19 = getelementptr inbounds nuw %struct.testVector, ptr %5, i32 0, i32 1
  store ptr @.str.167, ptr %19, align 8, !tbaa !34
  %20 = getelementptr inbounds nuw %struct.testVector, ptr %5, i32 0, i32 0
  %21 = load ptr, ptr %20, align 8, !tbaa !32
  %22 = call i64 @strlen(ptr noundef %21) #11
  %23 = getelementptr inbounds nuw %struct.testVector, ptr %5, i32 0, i32 2
  store i64 %22, ptr %23, align 8, !tbaa !35
  %24 = getelementptr inbounds nuw %struct.testVector, ptr %5, i32 0, i32 3
  store i64 32, ptr %24, align 8, !tbaa !36
  %25 = getelementptr inbounds nuw %struct.testVector, ptr %6, i32 0, i32 0
  store ptr @.str.150, ptr %25, align 8, !tbaa !32
  %26 = getelementptr inbounds nuw %struct.testVector, ptr %6, i32 0, i32 1
  store ptr @.str.168, ptr %26, align 8, !tbaa !34
  %27 = getelementptr inbounds nuw %struct.testVector, ptr %6, i32 0, i32 0
  %28 = load ptr, ptr %27, align 8, !tbaa !32
  %29 = call i64 @strlen(ptr noundef %28) #11
  %30 = getelementptr inbounds nuw %struct.testVector, ptr %6, i32 0, i32 2
  store i64 %29, ptr %30, align 8, !tbaa !35
  %31 = getelementptr inbounds nuw %struct.testVector, ptr %6, i32 0, i32 3
  store i64 32, ptr %31, align 8, !tbaa !36
  %32 = getelementptr inbounds nuw %struct.testVector, ptr %7, i32 0, i32 0
  store ptr @.str.152, ptr %32, align 8, !tbaa !32
  %33 = getelementptr inbounds nuw %struct.testVector, ptr %7, i32 0, i32 1
  store ptr @.str.169, ptr %33, align 8, !tbaa !34
  %34 = getelementptr inbounds nuw %struct.testVector, ptr %7, i32 0, i32 0
  %35 = load ptr, ptr %34, align 8, !tbaa !32
  %36 = call i64 @strlen(ptr noundef %35) #11
  %37 = getelementptr inbounds nuw %struct.testVector, ptr %7, i32 0, i32 2
  store i64 %36, ptr %37, align 8, !tbaa !35
  %38 = getelementptr inbounds nuw %struct.testVector, ptr %7, i32 0, i32 3
  store i64 32, ptr %38, align 8, !tbaa !36
  %39 = getelementptr inbounds nuw %struct.testVector, ptr %8, i32 0, i32 0
  store ptr null, ptr %39, align 8, !tbaa !32
  %40 = getelementptr inbounds nuw %struct.testVector, ptr %8, i32 0, i32 1
  store ptr @.str.170, ptr %40, align 8, !tbaa !34
  %41 = getelementptr inbounds nuw %struct.testVector, ptr %8, i32 0, i32 2
  store i64 0, ptr %41, align 8, !tbaa !35
  %42 = getelementptr inbounds nuw %struct.testVector, ptr %8, i32 0, i32 3
  store i64 32, ptr %42, align 8, !tbaa !36
  %43 = getelementptr inbounds nuw %struct.testVector, ptr %9, i32 0, i32 0
  store ptr @.str.154, ptr %43, align 8, !tbaa !32
  %44 = getelementptr inbounds nuw %struct.testVector, ptr %9, i32 0, i32 1
  store ptr @.str.171, ptr %44, align 8, !tbaa !34
  %45 = getelementptr inbounds nuw %struct.testVector, ptr %9, i32 0, i32 0
  %46 = load ptr, ptr %45, align 8, !tbaa !32
  %47 = call i64 @strlen(ptr noundef %46) #11
  %48 = getelementptr inbounds nuw %struct.testVector, ptr %9, i32 0, i32 2
  store i64 %47, ptr %48, align 8, !tbaa !35
  %49 = getelementptr inbounds nuw %struct.testVector, ptr %9, i32 0, i32 3
  store i64 32, ptr %49, align 8, !tbaa !36
  %50 = getelementptr inbounds [5 x %struct.testVector], ptr %10, i64 0, i64 0
  call void @llvm.memcpy.p0.p0.i64(ptr align 16 %50, ptr align 8 %5, i64 32, i1 false), !tbaa.struct !37
  %51 = getelementptr inbounds [5 x %struct.testVector], ptr %10, i64 0, i64 1
  call void @llvm.memcpy.p0.p0.i64(ptr align 16 %51, ptr align 8 %6, i64 32, i1 false), !tbaa.struct !37
  %52 = getelementptr inbounds [5 x %struct.testVector], ptr %10, i64 0, i64 2
  call void @llvm.memcpy.p0.p0.i64(ptr align 16 %52, ptr align 8 %7, i64 32, i1 false), !tbaa.struct !37
  %53 = getelementptr inbounds [5 x %struct.testVector], ptr %10, i64 0, i64 3
  call void @llvm.memcpy.p0.p0.i64(ptr align 16 %53, ptr align 8 %8, i64 32, i1 false), !tbaa.struct !37
  %54 = getelementptr inbounds [5 x %struct.testVector], ptr %10, i64 0, i64 4
  call void @llvm.memcpy.p0.p0.i64(ptr align 16 %54, ptr align 8 %9, i64 32, i1 false), !tbaa.struct !37
  store i32 0, ptr %13, align 4, !tbaa !14
  br label %55

55:                                               ; preds = %170, %17
  %56 = load i32, ptr %13, align 4, !tbaa !14
  %57 = load i32, ptr %12, align 4, !tbaa !14
  %58 = icmp slt i32 %56, %57
  br i1 %58, label %59, label %173

59:                                               ; preds = %55
  %60 = load i32, ptr @devId, align 4, !tbaa !14
  %61 = call i32 @wc_HmacInit(ptr noundef %2, ptr noundef null, i32 noundef %60)
  %62 = icmp ne i32 %61, 0
  br i1 %62, label %63, label %74

63:                                               ; preds = %59
  %64 = load i32, ptr %13, align 4, !tbaa !14
  %65 = zext i32 %64 to i64
  %66 = and i64 %65, 2047
  %67 = trunc i64 %66 to i32
  %68 = sext i32 %67 to i64
  %69 = mul nsw i64 %68, 100000
  %70 = add nsw i64 6789, %69
  %71 = add nsw i64 %70, 1610612736
  %72 = sub nsw i64 0, %71
  %73 = trunc i64 %72 to i32
  store i32 %73, ptr %1, align 4
  store i32 1, ptr %14, align 4
  br label %219

74:                                               ; preds = %59
  %75 = load i32, ptr %13, align 4, !tbaa !14
  %76 = sext i32 %75 to i64
  %77 = getelementptr inbounds [5 x ptr], ptr %4, i64 0, i64 %76
  %78 = load ptr, ptr %77, align 8, !tbaa !15
  %79 = load i32, ptr %13, align 4, !tbaa !14
  %80 = sext i32 %79 to i64
  %81 = getelementptr inbounds [5 x ptr], ptr %4, i64 0, i64 %80
  %82 = load ptr, ptr %81, align 8, !tbaa !15
  %83 = call i64 @strlen(ptr noundef %82) #11
  %84 = trunc i64 %83 to i32
  %85 = call i32 @wc_HmacSetKey(ptr noundef %2, i32 noundef 6, ptr noundef %78, i32 noundef %84)
  store i32 %85, ptr %11, align 4, !tbaa !14
  %86 = load i32, ptr %11, align 4, !tbaa !14
  %87 = icmp ne i32 %86, 0
  br i1 %87, label %88, label %99

88:                                               ; preds = %74
  %89 = load i32, ptr %13, align 4, !tbaa !14
  %90 = zext i32 %89 to i64
  %91 = and i64 %90, 2047
  %92 = trunc i64 %91 to i32
  %93 = sext i32 %92 to i64
  %94 = mul nsw i64 %93, 100000
  %95 = add nsw i64 6794, %94
  %96 = add nsw i64 %95, 1610612736
  %97 = sub nsw i64 0, %96
  %98 = trunc i64 %97 to i32
  store i32 %98, ptr %1, align 4
  store i32 1, ptr %14, align 4
  br label %219

99:                                               ; preds = %74
  %100 = load i32, ptr %13, align 4, !tbaa !14
  %101 = sext i32 %100 to i64
  %102 = getelementptr inbounds [5 x %struct.testVector], ptr %10, i64 0, i64 %101
  %103 = getelementptr inbounds nuw %struct.testVector, ptr %102, i32 0, i32 0
  %104 = load ptr, ptr %103, align 16, !tbaa !32
  %105 = icmp ne ptr %104, null
  br i1 %105, label %106, label %133

106:                                              ; preds = %99
  %107 = load i32, ptr %13, align 4, !tbaa !14
  %108 = sext i32 %107 to i64
  %109 = getelementptr inbounds [5 x %struct.testVector], ptr %10, i64 0, i64 %108
  %110 = getelementptr inbounds nuw %struct.testVector, ptr %109, i32 0, i32 0
  %111 = load ptr, ptr %110, align 16, !tbaa !32
  %112 = load i32, ptr %13, align 4, !tbaa !14
  %113 = sext i32 %112 to i64
  %114 = getelementptr inbounds [5 x %struct.testVector], ptr %10, i64 0, i64 %113
  %115 = getelementptr inbounds nuw %struct.testVector, ptr %114, i32 0, i32 2
  %116 = load i64, ptr %115, align 16, !tbaa !35
  %117 = trunc i64 %116 to i32
  %118 = call i32 @wc_HmacUpdate(ptr noundef %2, ptr noundef %111, i32 noundef %117)
  store i32 %118, ptr %11, align 4, !tbaa !14
  %119 = load i32, ptr %11, align 4, !tbaa !14
  %120 = icmp ne i32 %119, 0
  br i1 %120, label %121, label %132

121:                                              ; preds = %106
  %122 = load i32, ptr %13, align 4, !tbaa !14
  %123 = zext i32 %122 to i64
  %124 = and i64 %123, 2047
  %125 = trunc i64 %124 to i32
  %126 = sext i32 %125 to i64
  %127 = mul nsw i64 %126, 100000
  %128 = add nsw i64 6799, %127
  %129 = add nsw i64 %128, 1610612736
  %130 = sub nsw i64 0, %129
  %131 = trunc i64 %130 to i32
  store i32 %131, ptr %1, align 4
  store i32 1, ptr %14, align 4
  br label %219

132:                                              ; preds = %106
  br label %133

133:                                              ; preds = %132, %99
  %134 = getelementptr inbounds [32 x i8], ptr %3, i64 0, i64 0
  %135 = call i32 @wc_HmacFinal(ptr noundef %2, ptr noundef %134)
  store i32 %135, ptr %11, align 4, !tbaa !14
  %136 = load i32, ptr %11, align 4, !tbaa !14
  %137 = icmp ne i32 %136, 0
  br i1 %137, label %138, label %149

138:                                              ; preds = %133
  %139 = load i32, ptr %13, align 4, !tbaa !14
  %140 = zext i32 %139 to i64
  %141 = and i64 %140, 2047
  %142 = trunc i64 %141 to i32
  %143 = sext i32 %142 to i64
  %144 = mul nsw i64 %143, 100000
  %145 = add nsw i64 6803, %144
  %146 = add nsw i64 %145, 1610612736
  %147 = sub nsw i64 0, %146
  %148 = trunc i64 %147 to i32
  store i32 %148, ptr %1, align 4
  store i32 1, ptr %14, align 4
  br label %219

149:                                              ; preds = %133
  %150 = getelementptr inbounds [32 x i8], ptr %3, i64 0, i64 0
  %151 = load i32, ptr %13, align 4, !tbaa !14
  %152 = sext i32 %151 to i64
  %153 = getelementptr inbounds [5 x %struct.testVector], ptr %10, i64 0, i64 %152
  %154 = getelementptr inbounds nuw %struct.testVector, ptr %153, i32 0, i32 1
  %155 = load ptr, ptr %154, align 8, !tbaa !34
  %156 = call i32 @memcmp(ptr noundef %150, ptr noundef %155, i64 noundef 32) #11
  %157 = icmp ne i32 %156, 0
  br i1 %157, label %158, label %169

158:                                              ; preds = %149
  %159 = load i32, ptr %13, align 4, !tbaa !14
  %160 = zext i32 %159 to i64
  %161 = and i64 %160, 2047
  %162 = trunc i64 %161 to i32
  %163 = sext i32 %162 to i64
  %164 = mul nsw i64 %163, 100000
  %165 = add nsw i64 6806, %164
  %166 = add nsw i64 %165, 1610612736
  %167 = sub nsw i64 0, %166
  %168 = trunc i64 %167 to i32
  store i32 %168, ptr %1, align 4
  store i32 1, ptr %14, align 4
  br label %219

169:                                              ; preds = %149
  call void @wc_HmacFree(ptr noundef %2)
  br label %170

170:                                              ; preds = %169
  %171 = load i32, ptr %13, align 4, !tbaa !14
  %172 = add nsw i32 %171, 1
  store i32 %172, ptr %13, align 4, !tbaa !14
  br label %55, !llvm.loop !69

173:                                              ; preds = %55
  %174 = call i32 @wc_HmacSizeByType(i32 noundef 6)
  store i32 %174, ptr %11, align 4, !tbaa !14
  %175 = icmp ne i32 %174, 32
  br i1 %175, label %176, label %188

176:                                              ; preds = %173
  %177 = load i32, ptr %11, align 4, !tbaa !14
  %178 = sub nsw i32 0, %177
  %179 = zext i32 %178 to i64
  %180 = and i64 %179, 2047
  %181 = trunc i64 %180 to i32
  %182 = sext i32 %181 to i64
  %183 = mul nsw i64 %182, 100000
  %184 = add nsw i64 6813, %183
  %185 = add nsw i64 %184, 536870912
  %186 = sub nsw i64 0, %185
  %187 = trunc i64 %186 to i32
  store i32 %187, ptr %1, align 4
  store i32 1, ptr %14, align 4
  br label %219

188:                                              ; preds = %173
  %189 = call i32 @wc_HmacSizeByType(i32 noundef 21)
  store i32 %189, ptr %11, align 4, !tbaa !14
  %190 = icmp ne i32 %189, -173
  br i1 %190, label %191, label %203

191:                                              ; preds = %188
  %192 = load i32, ptr %11, align 4, !tbaa !14
  %193 = sub nsw i32 0, %192
  %194 = zext i32 %193 to i64
  %195 = and i64 %194, 2047
  %196 = trunc i64 %195 to i32
  %197 = sext i32 %196 to i64
  %198 = mul nsw i64 %197, 100000
  %199 = add nsw i64 6820, %198
  %200 = add nsw i64 %199, 536870912
  %201 = sub nsw i64 0, %200
  %202 = trunc i64 %201 to i32
  store i32 %202, ptr %1, align 4
  store i32 1, ptr %14, align 4
  br label %219

203:                                              ; preds = %188
  %204 = call i32 @wolfSSL_GetHmacMaxSize()
  store i32 %204, ptr %11, align 4, !tbaa !14
  %205 = icmp ne i32 %204, 64
  br i1 %205, label %206, label %218

206:                                              ; preds = %203
  %207 = load i32, ptr %11, align 4, !tbaa !14
  %208 = sub nsw i32 0, %207
  %209 = zext i32 %208 to i64
  %210 = and i64 %209, 2047
  %211 = trunc i64 %210 to i32
  %212 = sext i32 %211 to i64
  %213 = mul nsw i64 %212, 100000
  %214 = add nsw i64 6824, %213
  %215 = add nsw i64 %214, 536870912
  %216 = sub nsw i64 0, %215
  %217 = trunc i64 %216 to i32
  store i32 %217, ptr %1, align 4
  store i32 1, ptr %14, align 4
  br label %219

218:                                              ; preds = %203
  store i32 0, ptr %1, align 4
  store i32 1, ptr %14, align 4
  br label %219

219:                                              ; preds = %218, %206, %191, %176, %158, %138, %121, %88, %63
  call void @llvm.lifetime.end.p0(i64 4, ptr %13) #10
  call void @llvm.lifetime.end.p0(i64 4, ptr %12) #10
  call void @llvm.lifetime.end.p0(i64 4, ptr %11) #10
  call void @llvm.lifetime.end.p0(i64 160, ptr %10) #10
  call void @llvm.lifetime.end.p0(i64 32, ptr %9) #10
  call void @llvm.lifetime.end.p0(i64 32, ptr %8) #10
  call void @llvm.lifetime.end.p0(i64 32, ptr %7) #10
  call void @llvm.lifetime.end.p0(i64 32, ptr %6) #10
  call void @llvm.lifetime.end.p0(i64 32, ptr %5) #10
  call void @llvm.lifetime.end.p0(i64 40, ptr %4) #10
  call void @llvm.lifetime.end.p0(i64 32, ptr %3) #10
  call void @llvm.lifetime.end.p0(i64 784, ptr %2) #10
  %220 = load i32, ptr %1, align 4
  ret i32 %220
}