; Function Attrs: nounwind uwtable
define dso_local range(i32 -1611019542, 1) i32 @hmac_sha256_test() local_unnamed_addr #0 {
  %1 = alloca %struct.Hmac, align 16
  %2 = alloca [32 x i8], align 16
  %3 = alloca [5 x %struct.testVector], align 16
  call void @llvm.lifetime.start.p0(i64 784, ptr nonnull %1) #19
  call void @llvm.lifetime.start.p0(i64 32, ptr nonnull %2) #19
  call void @llvm.lifetime.start.p0(i64 160, ptr nonnull %3) #19
  store ptr @.str.148, ptr %3, align 16, !tbaa !29
  %.sroa.532.0..sroa_idx = getelementptr inbounds nuw i8, ptr %3, i64 8
  store ptr @.str.167, ptr %.sroa.532.0..sroa_idx, align 8, !tbaa !29
  %.sroa.633.0..sroa_idx = getelementptr inbounds nuw i8, ptr %3, i64 16
  store i64 8, ptr %.sroa.633.0..sroa_idx, align 16, !tbaa !27
  %4 = getelementptr inbounds nuw i8, ptr %3, i64 32
  store ptr @.str.150, ptr %4, align 16, !tbaa !29
  %.sroa.528.0..sroa_idx = getelementptr inbounds nuw i8, ptr %3, i64 40
  store ptr @.str.168, ptr %.sroa.528.0..sroa_idx, align 8, !tbaa !29
  %.sroa.629.0..sroa_idx = getelementptr inbounds nuw i8, ptr %3, i64 48
  store i64 28, ptr %.sroa.629.0..sroa_idx, align 16, !tbaa !27
  %5 = getelementptr inbounds nuw i8, ptr %3, i64 64
  store ptr @.str.152, ptr %5, align 16, !tbaa !29
  %.sroa.524.0..sroa_idx = getelementptr inbounds nuw i8, ptr %3, i64 72
  store ptr @.str.169, ptr %.sroa.524.0..sroa_idx, align 8, !tbaa !29
  %.sroa.625.0..sroa_idx = getelementptr inbounds nuw i8, ptr %3, i64 80
  store i64 50, ptr %.sroa.625.0..sroa_idx, align 16, !tbaa !27
  %6 = getelementptr inbounds nuw i8, ptr %3, i64 96
  store ptr null, ptr %6, align 16, !tbaa !29
  %.sroa.4.0..sroa_idx = getelementptr inbounds nuw i8, ptr %3, i64 104
  store ptr @.str.170, ptr %.sroa.4.0..sroa_idx, align 8, !tbaa !29
  %.sroa.521.0..sroa_idx = getelementptr inbounds nuw i8, ptr %3, i64 112
  store i64 0, ptr %.sroa.521.0..sroa_idx, align 16, !tbaa !27
  %7 = getelementptr inbounds nuw i8, ptr %3, i64 128
  store ptr @.str.154, ptr %7, align 16, !tbaa !29
  %.sroa.5.0..sroa_idx = getelementptr inbounds nuw i8, ptr %3, i64 136
  store ptr @.str.171, ptr %.sroa.5.0..sroa_idx, align 8, !tbaa !29
  %.sroa.6.0..sroa_idx = getelementptr inbounds nuw i8, ptr %3, i64 144
  store i64 54, ptr %.sroa.6.0..sroa_idx, align 16, !tbaa !27
  br label %8

8:                                                ; preds = %0, %44
  %indvars.iv = phi i64 [ 0, %0 ], [ %indvars.iv.next, %44 ]
  %9 = call i32 @wc_HmacInit(ptr noundef nonnull %1, ptr noundef null, i32 noundef -2) #19
  %.not51 = icmp eq i32 %9, 0
  br i1 %.not51, label %13, label %10

10:                                               ; preds = %8
  %11 = trunc nuw nsw i64 %indvars.iv to i32
  %narrow.neg71 = mul nsw i32 %11, -100000
  %12 = add nsw i32 %narrow.neg71, -1610619525
  br label %63

13:                                               ; preds = %8
  %14 = getelementptr inbounds nuw [5 x ptr], ptr @__const.hmac_sha256_test.keys, i64 0, i64 %indvars.iv
  %15 = load ptr, ptr %14, align 8, !tbaa !29
  %16 = call i64 @strlen(ptr noundef nonnull dereferenceable(1) %15) #20
  %17 = trunc i64 %16 to i32
  %18 = call i32 @wc_HmacSetKey(ptr noundef nonnull %1, i32 noundef 6, ptr noundef nonnull %15, i32 noundef %17) #19
  %.not52 = icmp eq i32 %18, 0
  br i1 %.not52, label %22, label %19

19:                                               ; preds = %13
  %20 = trunc nuw nsw i64 %indvars.iv to i32
  %narrow.neg68 = mul nsw i32 %20, -100000
  %21 = add nsw i32 %narrow.neg68, -1610619530
  br label %63

22:                                               ; preds = %13
  %23 = getelementptr inbounds nuw [5 x %struct.testVector], ptr %3, i64 0, i64 %indvars.iv
  %24 = load ptr, ptr %23, align 16, !tbaa !33
  %.not53 = icmp eq ptr %24, null
  br i1 %.not53, label %33, label %25

25:                                               ; preds = %22
  %26 = getelementptr inbounds nuw i8, ptr %23, i64 16
  %27 = load i64, ptr %26, align 16, !tbaa !35
  %28 = trunc i64 %27 to i32
  %29 = call i32 @wc_HmacUpdate(ptr noundef nonnull %1, ptr noundef nonnull %24, i32 noundef %28) #19
  %.not54 = icmp eq i32 %29, 0
  br i1 %.not54, label %33, label %30

30:                                               ; preds = %25
  %31 = trunc nuw nsw i64 %indvars.iv to i32
  %narrow.neg65 = mul nsw i32 %31, -100000
  %32 = add nsw i32 %narrow.neg65, -1610619535
  br label %63

33:                                               ; preds = %25, %22
  %34 = call i32 @wc_HmacFinal(ptr noundef nonnull %1, ptr noundef nonnull %2) #19
  %.not55 = icmp eq i32 %34, 0
  br i1 %.not55, label %38, label %35

35:                                               ; preds = %33
  %36 = trunc nuw nsw i64 %indvars.iv to i32
  %narrow.neg62 = mul nsw i32 %36, -100000
  %37 = add nsw i32 %narrow.neg62, -1610619539
  br label %63

38:                                               ; preds = %33
  %39 = getelementptr inbounds nuw i8, ptr %23, i64 8
  %40 = load ptr, ptr %39, align 8, !tbaa !36
  %bcmp = call i32 @bcmp(ptr noundef nonnull dereferenceable(32) %2, ptr noundef nonnull dereferenceable(32) %40, i64 32)
  %.not56 = icmp eq i32 %bcmp, 0
  br i1 %.not56, label %44, label %41

41:                                               ; preds = %38
  %42 = trunc nuw nsw i64 %indvars.iv to i32
  %narrow.neg59 = mul nsw i32 %42, -100000
  %43 = add nsw i32 %narrow.neg59, -1610619542
  br label %63

44:                                               ; preds = %38
  call void @wc_HmacFree(ptr noundef nonnull %1) #19
  %indvars.iv.next = add nuw nsw i64 %indvars.iv, 1
  %exitcond.not = icmp eq i64 %indvars.iv.next, 5
  br i1 %exitcond.not, label %45, label %8, !llvm.loop !80

45:                                               ; preds = %44
  %46 = call i32 @wc_HmacSizeByType(i32 noundef 6) #19
  %.not = icmp eq i32 %46, 32
  br i1 %.not, label %51, label %47

47:                                               ; preds = %45
  %48 = sub nsw i32 0, %46
  %49 = and i32 %48, 2047
  %narrow.neg50 = mul nsw i32 %49, -100000
  %50 = add nsw i32 %narrow.neg50, -536877725
  br label %63

51:                                               ; preds = %45
  %52 = call i32 @wc_HmacSizeByType(i32 noundef 21) #19
  %.not41 = icmp eq i32 %52, -173
  br i1 %.not41, label %57, label %53

53:                                               ; preds = %51
  %54 = sub nsw i32 0, %52
  %55 = and i32 %54, 2047
  %narrow.neg47 = mul nsw i32 %55, -100000
  %56 = add nsw i32 %narrow.neg47, -536877732
  br label %63

57:                                               ; preds = %51
  %58 = call i32 @wolfSSL_GetHmacMaxSize() #19
  %.not42 = icmp eq i32 %58, 64
  br i1 %.not42, label %63, label %59

59:                                               ; preds = %57
  %60 = sub nsw i32 0, %58
  %61 = and i32 %60, 2047
  %narrow.neg = mul nsw i32 %61, -100000
  %62 = add nsw i32 %narrow.neg, -536877736
  br label %63

63:                                               ; preds = %57, %59, %53, %47, %41, %35, %30, %19, %10
  %.036 = phi i32 [ %12, %10 ], [ %21, %19 ], [ %32, %30 ], [ %37, %35 ], [ %43, %41 ], [ %50, %47 ], [ %56, %53 ], [ %62, %59 ], [ 0, %57 ]
  call void @llvm.lifetime.end.p0(i64 160, ptr nonnull %3) #19
  call void @llvm.lifetime.end.p0(i64 32, ptr nonnull %2) #19
  call void @llvm.lifetime.end.p0(i64 784, ptr nonnull %1) #19
  ret i32 %.036
}